target datalayout = "e-m:e-p270:32:32-p271:32:32-p272:64:64-i64:64-i128:128-f80:128-n8:16:32:64-S128"
target triple = "x86_64-pc-linux-gnu"

%class.JvmtiUnitedHandshakeClosure.base = type <{ %class.HandshakeClosure, i32, [4 x i8], ptr, i8, i8 }>
%class.HandshakeClosure = type { %class.ThreadClosure, ptr }
%class.ThreadClosure = type { ptr }
%class.JvmtiUnitedHandshakeClosure = type <{ %class.HandshakeClosure, i32, [4 x i8], ptr, i8, i8, [6 x i8] }>
%class.GetFrameCountClosure = type { %class.JvmtiUnitedHandshakeClosure.base, ptr, ptr }

@_ZTV13ThreadClosure = linkonce_odr hidden unnamed_addr constant { [3 x ptr] } { [3 x ptr] [ptr null, ptr null, ptr @__cxa_pure_virtual] }, comdat, align 8
@.str.24 = private unnamed_addr constant [14 x i8] c"GetFrameCount\00", align 1
@_ZTV20GetFrameCountClosure = external unnamed_addr constant { [9 x ptr] }, align 8

; Function Attrs: mustprogress nounwind uwtable
define linkonce_odr hidden void @_ZN13ThreadClosureC2Ev(ptr noundef nonnull align 8 dereferenceable(8) %0) unnamed_addr #1 comdat align 2 {
  %2 = alloca ptr, align 8
  store ptr %0, ptr %2, align 8
  %3 = load ptr, ptr %2, align 8
  store ptr getelementptr inbounds inrange(-16, 8) ({ [3 x ptr] }, ptr @_ZTV13ThreadClosure, i32 0, i32 0, i32 2), ptr %3, align 8
  ret void
}

; Function Attrs: mustprogress nounwind uwtable
define linkonce_odr hidden void @_ZN16HandshakeClosureD2Ev(ptr noundef nonnull align 8 dereferenceable(16) %0) unnamed_addr #1 comdat align 2 {
  %2 = alloca ptr, align 8
  store ptr %0, ptr %2, align 8
  ret void
}

; Function Attrs: mustprogress nounwind uwtable
define linkonce_odr hidden void @_ZN16HandshakeClosureC2EPKc(ptr noundef nonnull align 8 dereferenceable(16) %0, ptr noundef %1) unnamed_addr #1 comdat align 2 {
  %3 = alloca ptr, align 8
  %4 = alloca ptr, align 8
  store ptr %0, ptr %3, align 8
  store ptr %1, ptr %4, align 8
  %5 = load ptr, ptr %3, align 8
  call void @_ZN13ThreadClosureC2Ev(ptr noundef nonnull align 8 dereferenceable(8) %5) #9
  store ptr getelementptr inbounds inrange(-16, 48) ({ [8 x ptr] }, ptr @_ZTV16HandshakeClosure, i32 0, i32 0, i32 2), ptr %5, align 8
  %6 = getelementptr inbounds %class.HandshakeClosure, ptr %5, i32 0, i32 1
  %7 = load ptr, ptr %4, align 8
  store ptr %7, ptr %6, align 8
  ret void
}

; Function Attrs: mustprogress nounwind uwtable
define linkonce_odr hidden void @_ZN27JvmtiUnitedHandshakeClosureD2Ev(ptr noundef nonnull align 8 dereferenceable(34) %0) unnamed_addr #1 comdat align 2 {
  %2 = alloca ptr, align 8
  store ptr %0, ptr %2, align 8
  %3 = load ptr, ptr %2, align 8
  call void @_ZN16HandshakeClosureD2Ev(ptr noundef nonnull align 8 dereferenceable(16) %3) #9
  ret void
}

; Function Attrs: mustprogress nounwind uwtable
define linkonce_odr hidden void @_ZN27JvmtiUnitedHandshakeClosureC2EPKc(ptr noundef nonnull align 8 dereferenceable(34) %0, ptr noundef %1) unnamed_addr #1 comdat align 2 {
  %3 = alloca ptr, align 8
  %4 = alloca ptr, align 8
  store ptr %0, ptr %3, align 8
  store ptr %1, ptr %4, align 8
  %5 = load ptr, ptr %3, align 8
  %6 = load ptr, ptr %4, align 8
  call void @_ZN16HandshakeClosureC2EPKc(ptr noundef nonnull align 8 dereferenceable(16) %5, ptr noundef %6)
  store ptr getelementptr inbounds inrange(-16, 56) ({ [9 x ptr] }, ptr @_ZTV27JvmtiUnitedHandshakeClosure, i32 0, i32 0, i32 2), ptr %5, align 8
  %7 = getelementptr inbounds %class.JvmtiUnitedHandshakeClosure, ptr %5, i32 0, i32 1
  store i32 15, ptr %7, align 8
  %8 = getelementptr inbounds %class.JvmtiUnitedHandshakeClosure, ptr %5, i32 0, i32 3
  store ptr null, ptr %8, align 8
  %9 = getelementptr inbounds %class.JvmtiUnitedHandshakeClosure, ptr %5, i32 0, i32 4
  store i8 0, ptr %9, align 8
  %10 = getelementptr inbounds %class.JvmtiUnitedHandshakeClosure, ptr %5, i32 0, i32 5
  store i8 0, ptr %10, align 1
  ret void
}

; Function Attrs: mustprogress nounwind uwtable
define linkonce_odr hidden void @_ZN20GetFrameCountClosureD2Ev(ptr noundef nonnull align 8 dereferenceable(56) %0) unnamed_addr #1 comdat align 2 {
  %2 = alloca ptr, align 8
  store ptr %0, ptr %2, align 8
  %3 = load ptr, ptr %2, align 8
  call void @_ZN27JvmtiUnitedHandshakeClosureD2Ev(ptr noundef nonnull align 8 dereferenceable(34) %3) #9
  ret void
}

; Function Attrs: mustprogress nounwind uwtable
define linkonce_odr hidden noundef i32 @_ZN27JvmtiUnitedHandshakeClosure6resultEv(ptr noundef nonnull align 8 dereferenceable(34) %0) #1 comdat align 2 {
  %2 = alloca ptr, align 8
  store ptr %0, ptr %2, align 8
  %3 = load ptr, ptr %2, align 8
  %4 = getelementptr inbounds %class.JvmtiUnitedHandshakeClosure, ptr %3, i32 0, i32 1
  %5 = load i32, ptr %4, align 8
  ret i32 %5
}

; Function Attrs: mustprogress nounwind uwtable
define linkonce_odr hidden void @_ZN20GetFrameCountClosureC2EP8JvmtiEnvPi(ptr noundef nonnull align 8 dereferenceable(56) %0, ptr noundef %1, ptr noundef %2) unnamed_addr #1 comdat align 2 {
  %4 = alloca ptr, align 8
  %5 = alloca ptr, align 8
  %6 = alloca ptr, align 8
  store ptr %0, ptr %4, align 8
  store ptr %1, ptr %5, align 8
  store ptr %2, ptr %6, align 8
  %7 = load ptr, ptr %4, align 8
  call void @_ZN27JvmtiUnitedHandshakeClosureC2EPKc(ptr noundef nonnull align 8 dereferenceable(34) %7, ptr noundef @.str.24)
  store ptr getelementptr inbounds inrange(-16, 56) ({ [9 x ptr] }, ptr @_ZTV20GetFrameCountClosure, i32 0, i32 0, i32 2), ptr %7, align 8
  %8 = getelementptr inbounds %class.GetFrameCountClosure, ptr %7, i32 0, i32 1
  %9 = load ptr, ptr %5, align 8
  store ptr %9, ptr %8, align 8
  %10 = getelementptr inbounds %class.GetFrameCountClosure, ptr %7, i32 0, i32 2
  %11 = load ptr, ptr %6, align 8
  store ptr %11, ptr %10, align 8
  ret void
}

; Function Attrs: mustprogress nounwind uwtable
define hidden noundef i32 @_ZN8JvmtiEnv13GetFrameCountEP8_jobjectPi(ptr noundef nonnull align 8 dereferenceable(460) %0, ptr noundef %1, ptr noundef %2) #1 align 2 {
  %4 = alloca ptr, align 8
  %5 = alloca ptr, align 8
  %6 = alloca ptr, align 8
  %7 = alloca %class.GetFrameCountClosure, align 8
  store ptr %0, ptr %4, align 8
  store ptr %1, ptr %5, align 8
  store ptr %2, ptr %6, align 8
  %8 = load ptr, ptr %4, align 8
  %9 = load ptr, ptr %6, align 8
  call void @_ZN20GetFrameCountClosureC2EP8JvmtiEnvPi(ptr noundef nonnull align 8 dereferenceable(56) %7, ptr noundef %8, ptr noundef %9)
  %10 = load ptr, ptr %5, align 8
  call void @_ZN14JvmtiHandshake7executeEP27JvmtiUnitedHandshakeClosureP8_jobject(ptr noundef %7, ptr noundef %10)
  %11 = call noundef i32 @_ZN27JvmtiUnitedHandshakeClosure6resultEv(ptr noundef nonnull align 8 dereferenceable(34) %7)
  call void @_ZN20GetFrameCountClosureD2Ev(ptr noundef nonnull align 8 dereferenceable(56) %7) #9
  ret i32 %11
}