; Function Attrs: mustprogress nounwind uwtable
define hidden noundef i32 @_ZN8JvmtiEnv13GetFrameCountEP8_jobjectPi(ptr noundef nonnull align 8 dereferenceable(460) %0, ptr noundef %1, ptr noundef %2) local_unnamed_addr #0 align 2 {
  %4 = alloca %class.GetFrameCountClosure, align 8
  %5 = getelementptr inbounds i8, ptr %4, i64 8
  store ptr @.str.24, ptr %5, align 8
  %6 = getelementptr inbounds i8, ptr %4, i64 16
  store i32 15, ptr %6, align 8
  %7 = getelementptr inbounds i8, ptr %4, i64 24
  store ptr null, ptr %7, align 8
  %8 = getelementptr inbounds i8, ptr %4, i64 32
  store i8 0, ptr %8, align 8
  %9 = getelementptr inbounds i8, ptr %4, i64 33
  store i8 0, ptr %9, align 1
  store ptr getelementptr inbounds inrange(-16, 56) (i8, ptr @_ZTV20GetFrameCountClosure, i64 16), ptr %4, align 8
  %10 = getelementptr inbounds i8, ptr %4, i64 40
  store ptr %0, ptr %10, align 8
  %11 = getelementptr inbounds i8, ptr %4, i64 48
  store ptr %2, ptr %11, align 8
  call void @_ZN14JvmtiHandshake7executeEP27JvmtiUnitedHandshakeClosureP8_jobject(ptr noundef nonnull %4, ptr noundef %1) #17
  %12 = load i32, ptr %6, align 8
  ret i32 %12
}